; Function Attrs: mustprogress uwtable
define dso_local noundef i32 @_ZN13GroupProbElem8get_probE8ProbName(ptr noundef nonnull align 8 dereferenceable(96) %0, i32 noundef %1) unnamed_addr #3 align 2 {
  %3 = alloca i32, align 4
  store i32 %1, ptr %3, align 4
  %4 = getelementptr inbounds i8, ptr %0, i64 48
  %5 = call noundef nonnull align 8 dereferenceable(8) ptr @_ZNSt3mapI8ProbNameP14SingleProbElemSt4lessIS0_ESaISt4pairIKS0_S2_EEEixERS6_(ptr noundef nonnull align 8 dereferenceable(48) %4, ptr noundef nonnull align 4 dereferenceable(4) %3)
  %6 = load ptr, ptr %5, align 8
  %7 = load i32, ptr %3, align 4
  %8 = load ptr, ptr %6, align 8
  %9 = getelementptr inbounds i8, ptr %8, i64 16
  %10 = load ptr, ptr %9, align 8
  %11 = call noundef i32 %10(ptr noundef nonnull align 8 dereferenceable(52) %6, i32 noundef %7)
  ret i32 %11
}